target datalayout = "e-m:e-p270:32:32-p271:32:32-p272:64:64-i64:64-i128:128-f80:128-n8:16:32:64-S128"
target triple = "x86_64-pc-linux-gnu"

%struct.FT_ValidatorRec_ = type { [1 x %struct.__jmp_buf_tag], ptr, ptr, i32, i32 }
%struct.__jmp_buf_tag = type { [8 x i64], i32, %struct.__sigset_t }
%struct.__sigset_t = type { [16 x i64] }
%struct.TT_ValidatorRec_ = type { %struct.FT_ValidatorRec_, i32 }

; Function Attrs: nounwind uwtable
define internal i32 @tt_cmap2_validate(ptr noundef %0, ptr noundef %1) #0 {
  %3 = alloca ptr, align 8
  %4 = alloca ptr, align 8
  %5 = alloca ptr, align 8
  %6 = alloca i32, align 4
  %7 = alloca i32, align 4
  %8 = alloca i32, align 4
  %9 = alloca ptr, align 8
  %10 = alloca ptr, align 8
  %11 = alloca ptr, align 8
  %12 = alloca i32, align 4
  %13 = alloca i32, align 4
  %14 = alloca i32, align 4
  %15 = alloca i32, align 4
  %16 = alloca i32, align 4
  %17 = alloca ptr, align 8
  %18 = alloca ptr, align 8
  %19 = alloca i32, align 4
  store ptr %0, ptr %3, align 8
  store ptr %1, ptr %4, align 8
  %20 = load ptr, ptr %3, align 8
  %21 = getelementptr inbounds i8, ptr %20, i64 2
  %22 = getelementptr inbounds i8, ptr %21, i64 2
  %23 = load ptr, ptr %4, align 8
  %24 = getelementptr inbounds %struct.FT_ValidatorRec_, ptr %23, i32 0, i32 2
  %25 = load volatile ptr, ptr %24, align 8
  %26 = icmp ugt ptr %22, %25
  br i1 %26, label %27, label %29

27:                                               ; preds = %2
  %28 = load ptr, ptr %4, align 8
  call void @ft_validator_error(ptr noundef %28, i32 noundef 8)
  br label %29

29:                                               ; preds = %27, %2
  %30 = load ptr, ptr %3, align 8
  %31 = getelementptr inbounds i8, ptr %30, i64 2
  store ptr %31, ptr %5, align 8
  %32 = load ptr, ptr %5, align 8
  %33 = getelementptr inbounds i8, ptr %32, i64 2
  store ptr %33, ptr %5, align 8
  %34 = load ptr, ptr %5, align 8
  %35 = getelementptr inbounds i8, ptr %34, i64 -2
  %36 = getelementptr inbounds i8, ptr %35, i64 0
  %37 = load i8, ptr %36, align 1
  %38 = zext i8 %37 to i16
  %39 = zext i16 %38 to i32
  %40 = shl i32 %39, 8
  %41 = load ptr, ptr %5, align 8
  %42 = getelementptr inbounds i8, ptr %41, i64 -2
  %43 = getelementptr inbounds i8, ptr %42, i64 1
  %44 = load i8, ptr %43, align 1
  %45 = zext i8 %44 to i16
  %46 = zext i16 %45 to i32
  %47 = shl i32 %46, 0
  %48 = or i32 %40, %47
  %49 = trunc i32 %48 to i16
  %50 = zext i16 %49 to i32
  store i32 %50, ptr %6, align 4
  %51 = load ptr, ptr %3, align 8
  %52 = load i32, ptr %6, align 4
  %53 = zext i32 %52 to i64
  %54 = getelementptr inbounds i8, ptr %51, i64 %53
  %55 = load ptr, ptr %4, align 8
  %56 = getelementptr inbounds %struct.FT_ValidatorRec_, ptr %55, i32 0, i32 2
  %57 = load volatile ptr, ptr %56, align 8
  %58 = icmp ugt ptr %54, %57
  br i1 %58, label %62, label %59

59:                                               ; preds = %29
  %60 = load i32, ptr %6, align 4
  %61 = icmp ult i32 %60, 518
  br i1 %61, label %62, label %64

62:                                               ; preds = %59, %29
  %63 = load ptr, ptr %4, align 8
  call void @ft_validator_error(ptr noundef %63, i32 noundef 8)
  br label %64

64:                                               ; preds = %62, %59
  %65 = load ptr, ptr %3, align 8
  %66 = getelementptr inbounds i8, ptr %65, i64 6
  store ptr %66, ptr %9, align 8
  %67 = load ptr, ptr %9, align 8
  store ptr %67, ptr %5, align 8
  store i32 0, ptr %8, align 4
  store i32 0, ptr %7, align 4
  br label %68

68:                                               ; preds = %110, %64
  %69 = load i32, ptr %7, align 4
  %70 = icmp ult i32 %69, 256
  br i1 %70, label %71, label %113

71:                                               ; preds = %68
  %72 = load ptr, ptr %5, align 8
  %73 = getelementptr inbounds i8, ptr %72, i64 2
  store ptr %73, ptr %5, align 8
  %74 = load ptr, ptr %5, align 8
  %75 = getelementptr inbounds i8, ptr %74, i64 -2
  %76 = getelementptr inbounds i8, ptr %75, i64 0
  %77 = load i8, ptr %76, align 1
  %78 = zext i8 %77 to i16
  %79 = zext i16 %78 to i32
  %80 = shl i32 %79, 8
  %81 = load ptr, ptr %5, align 8
  %82 = getelementptr inbounds i8, ptr %81, i64 -2
  %83 = getelementptr inbounds i8, ptr %82, i64 1
  %84 = load i8, ptr %83, align 1
  %85 = zext i8 %84 to i16
  %86 = zext i16 %85 to i32
  %87 = shl i32 %86, 0
  %88 = or i32 %80, %87
  %89 = trunc i32 %88 to i16
  %90 = zext i16 %89 to i32
  store i32 %90, ptr %12, align 4
  %91 = load ptr, ptr %4, align 8
  %92 = getelementptr inbounds %struct.FT_ValidatorRec_, ptr %91, i32 0, i32 3
  %93 = load volatile i32, ptr %92, align 8
  %94 = icmp uge i32 %93, 2
  br i1 %94, label %95, label %101

95:                                               ; preds = %71
  %96 = load i32, ptr %12, align 4
  %97 = and i32 %96, 7
  %98 = icmp ne i32 %97, 0
  br i1 %98, label %99, label %101

99:                                               ; preds = %95
  %100 = load ptr, ptr %4, align 8
  call void @ft_validator_error(ptr noundef %100, i32 noundef 8)
  br label %101

101:                                              ; preds = %99, %95, %71
  %102 = load i32, ptr %12, align 4
  %103 = lshr i32 %102, 3
  store i32 %103, ptr %12, align 4
  %104 = load i32, ptr %12, align 4
  %105 = load i32, ptr %8, align 4
  %106 = icmp ugt i32 %104, %105
  br i1 %106, label %107, label %109

107:                                              ; preds = %101
  %108 = load i32, ptr %12, align 4
  store i32 %108, ptr %8, align 4
  br label %109

109:                                              ; preds = %107, %101
  br label %110

110:                                              ; preds = %109
  %111 = load i32, ptr %7, align 4
  %112 = add i32 %111, 1
  store i32 %112, ptr %7, align 4
  br label %68, !llvm.loop !9

113:                                              ; preds = %68
  br label %114

114:                                              ; preds = %113
  br label %115

115:                                              ; preds = %114
  %116 = load ptr, ptr %5, align 8
  store ptr %116, ptr %10, align 8
  %117 = load ptr, ptr %10, align 8
  %118 = load i32, ptr %8, align 4
  %119 = add i32 %118, 1
  %120 = mul i32 %119, 8
  %121 = zext i32 %120 to i64
  %122 = getelementptr inbounds i8, ptr %117, i64 %121
  store ptr %122, ptr %11, align 8
  %123 = load ptr, ptr %11, align 8
  %124 = load ptr, ptr %4, align 8
  %125 = getelementptr inbounds %struct.FT_ValidatorRec_, ptr %124, i32 0, i32 2
  %126 = load volatile ptr, ptr %125, align 8
  %127 = icmp ugt ptr %123, %126
  br i1 %127, label %128, label %130

128:                                              ; preds = %115
  %129 = load ptr, ptr %4, align 8
  call void @ft_validator_error(ptr noundef %129, i32 noundef 8)
  br label %130

130:                                              ; preds = %128, %115
  store i32 0, ptr %7, align 4
  br label %131

131:                                              ; preds = %310, %130
  %132 = load i32, ptr %7, align 4
  %133 = load i32, ptr %8, align 4
  %134 = icmp ule i32 %132, %133
  br i1 %134, label %135, label %313

135:                                              ; preds = %131
  %136 = load ptr, ptr %5, align 8
  %137 = getelementptr inbounds i8, ptr %136, i64 2
  store ptr %137, ptr %5, align 8
  %138 = load ptr, ptr %5, align 8
  %139 = getelementptr inbounds i8, ptr %138, i64 -2
  %140 = getelementptr inbounds i8, ptr %139, i64 0
  %141 = load i8, ptr %140, align 1
  %142 = zext i8 %141 to i16
  %143 = zext i16 %142 to i32
  %144 = shl i32 %143, 8
  %145 = load ptr, ptr %5, align 8
  %146 = getelementptr inbounds i8, ptr %145, i64 -2
  %147 = getelementptr inbounds i8, ptr %146, i64 1
  %148 = load i8, ptr %147, align 1
  %149 = zext i8 %148 to i16
  %150 = zext i16 %149 to i32
  %151 = shl i32 %150, 0
  %152 = or i32 %144, %151
  %153 = trunc i32 %152 to i16
  %154 = zext i16 %153 to i32
  store i32 %154, ptr %13, align 4
  %155 = load ptr, ptr %5, align 8
  %156 = getelementptr inbounds i8, ptr %155, i64 2
  store ptr %156, ptr %5, align 8
  %157 = load ptr, ptr %5, align 8
  %158 = getelementptr inbounds i8, ptr %157, i64 -2
  %159 = getelementptr inbounds i8, ptr %158, i64 0
  %160 = load i8, ptr %159, align 1
  %161 = zext i8 %160 to i16
  %162 = zext i16 %161 to i32
  %163 = shl i32 %162, 8
  %164 = load ptr, ptr %5, align 8
  %165 = getelementptr inbounds i8, ptr %164, i64 -2
  %166 = getelementptr inbounds i8, ptr %165, i64 1
  %167 = load i8, ptr %166, align 1
  %168 = zext i8 %167 to i16
  %169 = zext i16 %168 to i32
  %170 = shl i32 %169, 0
  %171 = or i32 %163, %170
  %172 = trunc i32 %171 to i16
  %173 = zext i16 %172 to i32
  store i32 %173, ptr %14, align 4
  %174 = load ptr, ptr %5, align 8
  %175 = getelementptr inbounds i8, ptr %174, i64 2
  store ptr %175, ptr %5, align 8
  %176 = load ptr, ptr %5, align 8
  %177 = getelementptr inbounds i8, ptr %176, i64 -2
  %178 = getelementptr inbounds i8, ptr %177, i64 0
  %179 = load i8, ptr %178, align 1
  %180 = zext i8 %179 to i16
  %181 = zext i16 %180 to i32
  %182 = shl i32 %181, 8
  %183 = load ptr, ptr %5, align 8
  %184 = getelementptr inbounds i8, ptr %183, i64 -2
  %185 = getelementptr inbounds i8, ptr %184, i64 1
  %186 = load i8, ptr %185, align 1
  %187 = zext i8 %186 to i16
  %188 = zext i16 %187 to i32
  %189 = shl i32 %188, 0
  %190 = or i32 %182, %189
  %191 = trunc i32 %190 to i16
  %192 = sext i16 %191 to i32
  store i32 %192, ptr %16, align 4
  %193 = load ptr, ptr %5, align 8
  %194 = getelementptr inbounds i8, ptr %193, i64 2
  store ptr %194, ptr %5, align 8
  %195 = load ptr, ptr %5, align 8
  %196 = getelementptr inbounds i8, ptr %195, i64 -2
  %197 = getelementptr inbounds i8, ptr %196, i64 0
  %198 = load i8, ptr %197, align 1
  %199 = zext i8 %198 to i16
  %200 = zext i16 %199 to i32
  %201 = shl i32 %200, 8
  %202 = load ptr, ptr %5, align 8
  %203 = getelementptr inbounds i8, ptr %202, i64 -2
  %204 = getelementptr inbounds i8, ptr %203, i64 1
  %205 = load i8, ptr %204, align 1
  %206 = zext i8 %205 to i16
  %207 = zext i16 %206 to i32
  %208 = shl i32 %207, 0
  %209 = or i32 %201, %208
  %210 = trunc i32 %209 to i16
  %211 = zext i16 %210 to i32
  store i32 %211, ptr %15, align 4
  %212 = load i32, ptr %14, align 4
  %213 = icmp eq i32 %212, 0
  br i1 %213, label %214, label %215

214:                                              ; preds = %135
  br label %310

215:                                              ; preds = %135
  %216 = load ptr, ptr %4, align 8
  %217 = getelementptr inbounds %struct.FT_ValidatorRec_, ptr %216, i32 0, i32 3
  %218 = load volatile i32, ptr %217, align 8
  %219 = icmp uge i32 %218, 2
  br i1 %219, label %220, label %231

220:                                              ; preds = %215
  %221 = load i32, ptr %13, align 4
  %222 = icmp uge i32 %221, 256
  br i1 %222, label %228, label %223

223:                                              ; preds = %220
  %224 = load i32, ptr %14, align 4
  %225 = load i32, ptr %13, align 4
  %226 = sub i32 256, %225
  %227 = icmp ugt i32 %224, %226
  br i1 %227, label %228, label %230

228:                                              ; preds = %223, %220
  %229 = load ptr, ptr %4, align 8
  call void @ft_validator_error(ptr noundef %229, i32 noundef 8)
  br label %230

230:                                              ; preds = %228, %223
  br label %231

231:                                              ; preds = %230, %215
  %232 = load i32, ptr %15, align 4
  %233 = icmp ne i32 %232, 0
  br i1 %233, label %234, label %309

234:                                              ; preds = %231
  %235 = load ptr, ptr %5, align 8
  %236 = getelementptr inbounds i8, ptr %235, i64 -2
  %237 = load i32, ptr %15, align 4
  %238 = zext i32 %237 to i64
  %239 = getelementptr inbounds i8, ptr %236, i64 %238
  store ptr %239, ptr %17, align 8
  %240 = load ptr, ptr %17, align 8
  %241 = load ptr, ptr %11, align 8
  %242 = icmp ult ptr %240, %241
  br i1 %242, label %254, label %243

243:                                              ; preds = %234
  %244 = load ptr, ptr %17, align 8
  %245 = load i32, ptr %14, align 4
  %246 = mul i32 %245, 2
  %247 = zext i32 %246 to i64
  %248 = getelementptr inbounds i8, ptr %244, i64 %247
  %249 = load ptr, ptr %3, align 8
  %250 = load i32, ptr %6, align 4
  %251 = zext i32 %250 to i64
  %252 = getelementptr inbounds i8, ptr %249, i64 %251
  %253 = icmp ugt ptr %248, %252
  br i1 %253, label %254, label %256

254:                                              ; preds = %243, %234
  %255 = load ptr, ptr %4, align 8
  call void @ft_validator_error(ptr noundef %255, i32 noundef 9)
  br label %256

256:                                              ; preds = %254, %243
  %257 = load ptr, ptr %4, align 8
  %258 = getelementptr inbounds %struct.FT_ValidatorRec_, ptr %257, i32 0, i32 3
  %259 = load volatile i32, ptr %258, align 8
  %260 = icmp uge i32 %259, 1
  br i1 %260, label %261, label %308

261:                                              ; preds = %256
  %262 = load ptr, ptr %5, align 8
  %263 = load i32, ptr %14, align 4
  %264 = mul i32 %263, 2
  %265 = zext i32 %264 to i64
  %266 = getelementptr inbounds i8, ptr %262, i64 %265
  store ptr %266, ptr %18, align 8
  br label %267

267:                                              ; preds = %306, %261
  %268 = load ptr, ptr %5, align 8
  %269 = load ptr, ptr %18, align 8
  %270 = icmp ult ptr %268, %269
  br i1 %270, label %271, label %307

271:                                              ; preds = %267
  %272 = load ptr, ptr %5, align 8
  %273 = getelementptr inbounds i8, ptr %272, i64 2
  store ptr %273, ptr %5, align 8
  %274 = load ptr, ptr %5, align 8
  %275 = getelementptr inbounds i8, ptr %274, i64 -2
  %276 = getelementptr inbounds i8, ptr %275, i64 0
  %277 = load i8, ptr %276, align 1
  %278 = zext i8 %277 to i16
  %279 = zext i16 %278 to i32
  %280 = shl i32 %279, 8
  %281 = load ptr, ptr %5, align 8
  %282 = getelementptr inbounds i8, ptr %281, i64 -2
  %283 = getelementptr inbounds i8, ptr %282, i64 1
  %284 = load i8, ptr %283, align 1
  %285 = zext i8 %284 to i16
  %286 = zext i16 %285 to i32
  %287 = shl i32 %286, 0
  %288 = or i32 %280, %287
  %289 = trunc i32 %288 to i16
  %290 = zext i16 %289 to i32
  store i32 %290, ptr %19, align 4
  %291 = load i32, ptr %19, align 4
  %292 = icmp ne i32 %291, 0
  br i1 %292, label %293, label %306

293:                                              ; preds = %271
  %294 = load i32, ptr %19, align 4
  %295 = load i32, ptr %16, align 4
  %296 = add nsw i32 %294, %295
  %297 = and i32 %296, 65535
  store i32 %297, ptr %19, align 4
  %298 = load i32, ptr %19, align 4
  %299 = load ptr, ptr %4, align 8
  %300 = getelementptr inbounds %struct.TT_ValidatorRec_, ptr %299, i32 0, i32 1
  %301 = load i32, ptr %300, align 8
  %302 = icmp uge i32 %298, %301
  br i1 %302, label %303, label %305

303:                                              ; preds = %293
  %304 = load ptr, ptr %4, align 8
  call void @ft_validator_error(ptr noundef %304, i32 noundef 16)
  br label %305

305:                                              ; preds = %303, %293
  br label %306

306:                                              ; preds = %305, %271
  br label %267, !llvm.loop !10

307:                                              ; preds = %267
  br label %308

308:                                              ; preds = %307, %256
  br label %309

309:                                              ; preds = %308, %231
  br label %310

310:                                              ; preds = %309, %214
  %311 = load i32, ptr %7, align 4
  %312 = add i32 %311, 1
  store i32 %312, ptr %7, align 4
  br label %131, !llvm.loop !11

313:                                              ; preds = %131
  ret i32 0
}