; Function Attrs: nounwind uwtable
define internal noundef i32 @tt_cmap2_validate(ptr noundef readonly %0, ptr noundef %1) #0 {
  %3 = getelementptr inbounds i8, ptr %0, i64 4
  %4 = getelementptr inbounds i8, ptr %1, i64 208
  %5 = load volatile ptr, ptr %4, align 8
  %6 = icmp ugt ptr %3, %5
  br i1 %6, label %7, label %8

7:                                                ; preds = %2
  tail call void @ft_validator_error(ptr noundef nonnull %1, i32 noundef 8) #26
  br label %8

8:                                                ; preds = %7, %2
  %9 = getelementptr inbounds i8, ptr %0, i64 2
  %10 = load i8, ptr %9, align 1
  %11 = zext i8 %10 to i32
  %12 = shl nuw nsw i32 %11, 8
  %13 = getelementptr inbounds i8, ptr %0, i64 3
  %14 = load i8, ptr %13, align 1
  %15 = zext i8 %14 to i32
  %16 = or disjoint i32 %12, %15
  %17 = zext nneg i32 %16 to i64
  %18 = getelementptr inbounds i8, ptr %0, i64 %17
  %19 = load volatile ptr, ptr %4, align 8
  %20 = icmp ugt ptr %18, %19
  %21 = icmp ult i32 %16, 518
  %or.cond = or i1 %21, %20
  br i1 %or.cond, label %22, label %23

22:                                               ; preds = %8
  tail call void @ft_validator_error(ptr noundef nonnull %1, i32 noundef 8) #26
  br label %23

23:                                               ; preds = %8, %22
  %24 = getelementptr inbounds i8, ptr %0, i64 6
  %25 = getelementptr inbounds i8, ptr %1, i64 216
  br label %26

26:                                               ; preds = %23, %39
  %.0101 = phi ptr [ %24, %23 ], [ %27, %39 ]
  %.077100 = phi i32 [ 0, %23 ], [ %41, %39 ]
  %.07999 = phi i32 [ 0, %23 ], [ %spec.select, %39 ]
  %27 = getelementptr inbounds i8, ptr %.0101, i64 2
  %28 = load i8, ptr %.0101, align 1
  %29 = zext i8 %28 to i32
  %30 = shl nuw nsw i32 %29, 8
  %31 = getelementptr inbounds i8, ptr %.0101, i64 1
  %32 = load i8, ptr %31, align 1
  %33 = zext i8 %32 to i32
  %34 = or disjoint i32 %30, %33
  %35 = load volatile i32, ptr %25, align 8
  %36 = icmp ult i32 %35, 2
  %37 = and i32 %33, 7
  %.not91 = icmp eq i32 %37, 0
  %or.cond92 = select i1 %36, i1 true, i1 %.not91
  br i1 %or.cond92, label %39, label %38

38:                                               ; preds = %26
  tail call void @ft_validator_error(ptr noundef nonnull %1, i32 noundef 8) #26
  br label %39

39:                                               ; preds = %38, %26
  %40 = lshr i32 %34, 3
  %spec.select = tail call i32 @llvm.umax.i32(i32 %40, i32 %.07999)
  %41 = add nuw nsw i32 %.077100, 1
  %exitcond.not = icmp eq i32 %41, 256
  br i1 %exitcond.not, label %42, label %26, !llvm.loop !9

42:                                               ; preds = %39
  %scevgep = getelementptr i8, ptr %0, i64 518
  %43 = shl nuw nsw i32 %spec.select, 3
  %44 = zext nneg i32 %43 to i64
  %45 = getelementptr inbounds i8, ptr %scevgep, i64 %44
  %46 = getelementptr inbounds i8, ptr %45, i64 8
  %47 = load volatile ptr, ptr %4, align 8
  %48 = icmp ugt ptr %46, %47
  br i1 %48, label %49, label %50

49:                                               ; preds = %42
  tail call void @ft_validator_error(ptr noundef nonnull %1, i32 noundef 8) #26
  br label %50

50:                                               ; preds = %49, %42
  %51 = getelementptr inbounds i8, ptr %1, i64 224
  br label %52

52:                                               ; preds = %50, %.loopexit
  %.1104 = phi ptr [ %scevgep, %50 ], [ %.3, %.loopexit ]
  %.178103 = phi i32 [ 0, %50 ], [ %120, %.loopexit ]
  %53 = load i8, ptr %.1104, align 1
  %54 = zext i8 %53 to i32
  %55 = shl nuw nsw i32 %54, 8
  %56 = getelementptr inbounds i8, ptr %.1104, i64 1
  %57 = load i8, ptr %56, align 1
  %58 = zext i8 %57 to i32
  %59 = or disjoint i32 %55, %58
  %60 = getelementptr inbounds i8, ptr %.1104, i64 2
  %61 = load i8, ptr %60, align 1
  %62 = zext i8 %61 to i32
  %63 = shl nuw nsw i32 %62, 8
  %64 = getelementptr inbounds i8, ptr %.1104, i64 3
  %65 = load i8, ptr %64, align 1
  %66 = zext i8 %65 to i32
  %67 = or disjoint i32 %63, %66
  %68 = getelementptr inbounds i8, ptr %.1104, i64 4
  %69 = load i8, ptr %68, align 1
  %70 = zext i8 %69 to i32
  %71 = shl nuw nsw i32 %70, 8
  %72 = getelementptr inbounds i8, ptr %.1104, i64 5
  %73 = load i8, ptr %72, align 1
  %74 = zext i8 %73 to i32
  %75 = or disjoint i32 %71, %74
  %.ptr = getelementptr inbounds i8, ptr %.1104, i64 8
  %76 = getelementptr inbounds i8, ptr %.1104, i64 6
  %77 = load i8, ptr %76, align 1
  %78 = zext i8 %77 to i32
  %79 = shl nuw nsw i32 %78, 8
  %80 = getelementptr inbounds i8, ptr %.1104, i64 7
  %81 = load i8, ptr %80, align 1
  %82 = zext i8 %81 to i32
  %83 = or disjoint i32 %79, %82
  %84 = icmp eq i32 %67, 0
  br i1 %84, label %.loopexit, label %85

85:                                               ; preds = %52
  %86 = load volatile i32, ptr %25, align 8
  %87 = icmp ugt i32 %86, 1
  br i1 %87, label %88, label %93

88:                                               ; preds = %85
  %89 = icmp ugt i32 %59, 255
  %90 = sub nuw nsw i32 256, %59
  %91 = icmp ugt i32 %67, %90
  %or.cond94 = select i1 %89, i1 true, i1 %91
  br i1 %or.cond94, label %92, label %93

92:                                               ; preds = %88
  tail call void @ft_validator_error(ptr noundef nonnull %1, i32 noundef 8) #26
  br label %93

93:                                               ; preds = %88, %92, %85
  %.not87 = icmp eq i32 %83, 0
  br i1 %.not87, label %.loopexit, label %94

94:                                               ; preds = %93
  %95 = zext nneg i32 %83 to i64
  %96 = getelementptr inbounds i8, ptr %76, i64 %95
  %97 = icmp ult ptr %96, %46
  %98 = shl nuw nsw i32 %67, 1
  %99 = zext nneg i32 %98 to i64
  %100 = getelementptr inbounds i8, ptr %96, i64 %99
  %101 = icmp ugt ptr %100, %18
  %or.cond98 = select i1 %97, i1 true, i1 %101
  br i1 %or.cond98, label %102, label %103

102:                                              ; preds = %94
  tail call void @ft_validator_error(ptr noundef nonnull %1, i32 noundef 9) #26
  br label %103

103:                                              ; preds = %94, %102
  %104 = load volatile i32, ptr %25, align 8
  %.not88 = icmp eq i32 %104, 0
  br i1 %.not88, label %.loopexit, label %.lr.ph.preheader

.lr.ph.preheader:                                 ; preds = %103
  %.add = add nuw nsw i64 %99, 8
  %.ptr105 = getelementptr inbounds i8, ptr %.1104, i64 %.add
  br label %.lr.ph

.lr.ph:                                           ; preds = %.lr.ph.preheader, %118
  %.2102 = phi ptr [ %105, %118 ], [ %.ptr, %.lr.ph.preheader ]
  %105 = getelementptr inbounds i8, ptr %.2102, i64 2
  %106 = load i8, ptr %.2102, align 1
  %107 = zext i8 %106 to i32
  %108 = shl nuw nsw i32 %107, 8
  %109 = getelementptr inbounds i8, ptr %.2102, i64 1
  %110 = load i8, ptr %109, align 1
  %111 = zext i8 %110 to i32
  %112 = or disjoint i32 %108, %111
  %.not89 = icmp eq i32 %112, 0
  br i1 %.not89, label %118, label %113

113:                                              ; preds = %.lr.ph
  %114 = add nuw nsw i32 %112, %75
  %115 = and i32 %114, 65535
  %116 = load i32, ptr %51, align 8
  %.not90 = icmp ult i32 %115, %116
  br i1 %.not90, label %118, label %117

117:                                              ; preds = %113
  tail call void @ft_validator_error(ptr noundef nonnull %1, i32 noundef 16) #26
  br label %118

118:                                              ; preds = %113, %117, %.lr.ph
  %119 = icmp ult ptr %105, %.ptr105
  br i1 %119, label %.lr.ph, label %.loopexit, !llvm.loop !10

.loopexit:                                        ; preds = %118, %93, %103, %52
  %.3 = phi ptr [ %.ptr, %52 ], [ %.ptr, %103 ], [ %.ptr, %93 ], [ %105, %118 ]
  %120 = add nuw i32 %.178103, 1
  %exitcond107.not = icmp eq i32 %.178103, %spec.select
  br i1 %exitcond107.not, label %121, label %52, !llvm.loop !11

121:                                              ; preds = %.loopexit
  ret i32 0
}